target datalayout = "e-m:e-p270:32:32-p271:32:32-p272:64:64-i64:64-i128:128-f80:128-n8:16:32:64-S128"
target triple = "x86_64-pc-linux-gnu"

@libctx = internal global ptr null, align 8
@.str.14 = private unnamed_addr constant [30 x i8] c"../openssl/test/quicapitest.c\00", align 1
@is_fips = internal global i32 0, align 4
@.str.88 = private unnamed_addr constant [4 x i8] c"ctx\00", align 1
@__const.test_ciphersuites.cipherids = private unnamed_addr constant [3 x i32] [i32 50336514, i32 50336515, i32 50336513], align 4
@.str.103 = private unnamed_addr constant [40 x i8] c"SSL_CTX_set_cipher_list(ctx, \22DEFAULT\22)\00", align 1
@.str.104 = private unnamed_addr constant [8 x i8] c"DEFAULT\00", align 1
@.str.105 = private unnamed_addr constant [4 x i8] c"ssl\00", align 1
@.str.106 = private unnamed_addr constant [36 x i8] c"SSL_set_cipher_list(ssl, \22DEFAULT\22)\00", align 1
@.str.107 = private unnamed_addr constant [7 x i8] c"cipher\00", align 1
@.str.108 = private unnamed_addr constant [26 x i8] c"SSL_CIPHER_get_id(cipher)\00", align 1
@.str.109 = private unnamed_addr constant [13 x i8] c"cipherids[i]\00", align 1
@.str.110 = private unnamed_addr constant [27 x i8] c"sk_SSL_CIPHER_num(ciphers)\00", align 1
@.str.111 = private unnamed_addr constant [2 x i8] c"j\00", align 1

; Function Attrs: inlinehint nounwind uwtable
define internal ptr @ossl_check_const_SSL_CIPHER_sk_type(ptr noundef %0) #5 {
  %2 = alloca ptr, align 8
  store ptr %0, ptr %2, align 8, !tbaa !30
  %3 = load ptr, ptr %2, align 8, !tbaa !30
  ret ptr %3
}

; Function Attrs: nounwind uwtable
define internal i32 @test_ciphersuites() #0 {
  %1 = alloca i32, align 4
  %2 = alloca ptr, align 8
  %3 = alloca ptr, align 8
  %4 = alloca i32, align 4
  %5 = alloca ptr, align 8
  %6 = alloca ptr, align 8
  %7 = alloca [3 x i32], align 4
  %8 = alloca i64, align 8
  %9 = alloca i64, align 8
  %10 = alloca i32, align 4
  call void @llvm.lifetime.start.p0(i64 8, ptr %2) #8
  %11 = load ptr, ptr @libctx, align 8, !tbaa !4
  %12 = call ptr @OSSL_QUIC_client_method()
  %13 = call ptr @SSL_CTX_new_ex(ptr noundef %11, ptr noundef null, ptr noundef %12)
  store ptr %13, ptr %2, align 8, !tbaa !15
  call void @llvm.lifetime.start.p0(i64 8, ptr %3) #8
  store ptr null, ptr %3, align 8, !tbaa !17
  call void @llvm.lifetime.start.p0(i64 4, ptr %4) #8
  store i32 0, ptr %4, align 4, !tbaa !13
  call void @llvm.lifetime.start.p0(i64 8, ptr %5) #8
  store ptr null, ptr %5, align 8, !tbaa !30
  call void @llvm.lifetime.start.p0(i64 8, ptr %6) #8
  call void @llvm.lifetime.start.p0(i64 12, ptr %7) #8
  call void @llvm.memcpy.p0.p0.i64(ptr align 4 %7, ptr align 4 @__const.test_ciphersuites.cipherids, i64 12, i1 false)
  call void @llvm.lifetime.start.p0(i64 8, ptr %8) #8
  call void @llvm.lifetime.start.p0(i64 8, ptr %9) #8
  %14 = load ptr, ptr %2, align 8, !tbaa !15
  %15 = call i32 @test_ptr(ptr noundef @.str.14, i32 noundef 303, ptr noundef @.str.88, ptr noundef %14)
  %16 = icmp ne i32 %15, 0
  br i1 %16, label %18, label %17

17:                                               ; preds = %0
  store i32 0, ptr %1, align 4
  store i32 1, ptr %10, align 4
  br label %94

18:                                               ; preds = %0
  %19 = load ptr, ptr %2, align 8, !tbaa !15
  %20 = call i32 @SSL_CTX_set_cipher_list(ptr noundef %19, ptr noundef @.str.104)
  %21 = icmp ne i32 %20, 0
  %22 = zext i1 %21 to i32
  %23 = call i32 @test_true(ptr noundef @.str.14, i32 noundef 310, ptr noundef @.str.103, i32 noundef %22)
  %24 = icmp ne i32 %23, 0
  br i1 %24, label %26, label %25

25:                                               ; preds = %18
  br label %90

26:                                               ; preds = %18
  %27 = load ptr, ptr %2, align 8, !tbaa !15
  %28 = call ptr @SSL_new(ptr noundef %27)
  store ptr %28, ptr %3, align 8, !tbaa !17
  %29 = load ptr, ptr %3, align 8, !tbaa !17
  %30 = call i32 @test_ptr(ptr noundef @.str.14, i32 noundef 314, ptr noundef @.str.105, ptr noundef %29)
  %31 = icmp ne i32 %30, 0
  br i1 %31, label %33, label %32

32:                                               ; preds = %26
  br label %90

33:                                               ; preds = %26
  %34 = load ptr, ptr %3, align 8, !tbaa !17
  %35 = call i32 @SSL_set_cipher_list(ptr noundef %34, ptr noundef @.str.104)
  %36 = icmp ne i32 %35, 0
  %37 = zext i1 %36 to i32
  %38 = call i32 @test_true(ptr noundef @.str.14, i32 noundef 317, ptr noundef @.str.106, i32 noundef %37)
  %39 = icmp ne i32 %38, 0
  br i1 %39, label %41, label %40

40:                                               ; preds = %33
  br label %90

41:                                               ; preds = %33
  %42 = load ptr, ptr %3, align 8, !tbaa !17
  %43 = call ptr @SSL_get_ciphers(ptr noundef %42)
  store ptr %43, ptr %5, align 8, !tbaa !30
  store i64 0, ptr %8, align 8, !tbaa !21
  store i64 0, ptr %9, align 8, !tbaa !21
  br label %44

44:                                               ; preds = %77, %41
  %45 = load i64, ptr %8, align 8, !tbaa !21
  %46 = icmp ult i64 %45, 3
  br i1 %46, label %47, label %80

47:                                               ; preds = %44
  %48 = load i64, ptr %8, align 8, !tbaa !21
  %49 = getelementptr inbounds nuw [3 x i32], ptr %7, i64 0, i64 %48
  %50 = load i32, ptr %49, align 4, !tbaa !13
  %51 = icmp eq i32 %50, 50336515
  br i1 %51, label %52, label %56

52:                                               ; preds = %47
  %53 = load i32, ptr @is_fips, align 4, !tbaa !13
  %54 = icmp ne i32 %53, 0
  br i1 %54, label %55, label %56

55:                                               ; preds = %52
  br label %77

56:                                               ; preds = %52, %47
  %57 = load ptr, ptr %5, align 8, !tbaa !30
  %58 = call ptr @ossl_check_const_SSL_CIPHER_sk_type(ptr noundef %57)
  %59 = load i64, ptr %9, align 8, !tbaa !21
  %60 = add i64 %59, 1
  store i64 %60, ptr %9, align 8, !tbaa !21
  %61 = trunc i64 %59 to i32
  %62 = call ptr @OPENSSL_sk_value(ptr noundef %58, i32 noundef %61)
  store ptr %62, ptr %6, align 8, !tbaa !32
  %63 = load ptr, ptr %6, align 8, !tbaa !32
  %64 = call i32 @test_ptr(ptr noundef @.str.14, i32 noundef 326, ptr noundef @.str.107, ptr noundef %63)
  %65 = icmp ne i32 %64, 0
  br i1 %65, label %67, label %66

66:                                               ; preds = %56
  br label %90

67:                                               ; preds = %56
  %68 = load ptr, ptr %6, align 8, !tbaa !32
  %69 = call i32 @SSL_CIPHER_get_id(ptr noundef %68)
  %70 = load i64, ptr %8, align 8, !tbaa !21
  %71 = getelementptr inbounds nuw [3 x i32], ptr %7, i64 0, i64 %70
  %72 = load i32, ptr %71, align 4, !tbaa !13
  %73 = call i32 @test_uint_eq(ptr noundef @.str.14, i32 noundef 328, ptr noundef @.str.108, ptr noundef @.str.109, i32 noundef %69, i32 noundef %72)
  %74 = icmp ne i32 %73, 0
  br i1 %74, label %76, label %75

75:                                               ; preds = %67
  br label %90

76:                                               ; preds = %67
  br label %77

77:                                               ; preds = %76, %55
  %78 = load i64, ptr %8, align 8, !tbaa !21
  %79 = add i64 %78, 1
  store i64 %79, ptr %8, align 8, !tbaa !21
  br label %44, !llvm.loop !34

80:                                               ; preds = %44
  %81 = load ptr, ptr %5, align 8, !tbaa !30
  %82 = call ptr @ossl_check_const_SSL_CIPHER_sk_type(ptr noundef %81)
  %83 = call i32 @OPENSSL_sk_num(ptr noundef %82)
  %84 = load i64, ptr %9, align 8, !tbaa !21
  %85 = trunc i64 %84 to i32
  %86 = call i32 @test_int_eq(ptr noundef @.str.14, i32 noundef 333, ptr noundef @.str.110, ptr noundef @.str.111, i32 noundef %83, i32 noundef %85)
  %87 = icmp ne i32 %86, 0
  br i1 %87, label %89, label %88

88:                                               ; preds = %80
  br label %90

89:                                               ; preds = %80
  store i32 1, ptr %4, align 4, !tbaa !13
  br label %90

90:                                               ; preds = %89, %88, %75, %66, %40, %32, %25
  %91 = load ptr, ptr %3, align 8, !tbaa !17
  call void @SSL_free(ptr noundef %91)
  %92 = load ptr, ptr %2, align 8, !tbaa !15
  call void @SSL_CTX_free(ptr noundef %92)
  %93 = load i32, ptr %4, align 4, !tbaa !13
  store i32 %93, ptr %1, align 4
  store i32 1, ptr %10, align 4
  br label %94

94:                                               ; preds = %90, %17
  call void @llvm.lifetime.end.p0(i64 8, ptr %9) #8
  call void @llvm.lifetime.end.p0(i64 8, ptr %8) #8
  call void @llvm.lifetime.end.p0(i64 12, ptr %7) #8
  call void @llvm.lifetime.end.p0(i64 8, ptr %6) #8
  call void @llvm.lifetime.end.p0(i64 8, ptr %5) #8
  call void @llvm.lifetime.end.p0(i64 4, ptr %4) #8
  call void @llvm.lifetime.end.p0(i64 8, ptr %3) #8
  call void @llvm.lifetime.end.p0(i64 8, ptr %2) #8
  %95 = load i32, ptr %1, align 4
  ret i32 %95
}