; Function Attrs: nounwind uwtable
define internal range(i32 0, 2) i32 @test_ciphersuites() #1 {
  %1 = load ptr, ptr @libctx, align 8, !tbaa !4
  %2 = tail call ptr @OSSL_QUIC_client_method() #10
  %3 = tail call ptr @SSL_CTX_new_ex(ptr noundef %1, ptr noundef null, ptr noundef %2) #10
  %4 = tail call i32 @test_ptr(ptr noundef nonnull @.str.14, i32 noundef 303, ptr noundef nonnull @.str.88, ptr noundef %3) #10
  %.not = icmp eq i32 %4, 0
  br i1 %.not, label %38, label %5

5:                                                ; preds = %0
  %6 = tail call i32 @SSL_CTX_set_cipher_list(ptr noundef %3, ptr noundef nonnull @.str.104) #10
  %7 = icmp ne i32 %6, 0
  %8 = zext i1 %7 to i32
  %9 = tail call i32 @test_true(ptr noundef nonnull @.str.14, i32 noundef 310, ptr noundef nonnull @.str.103, i32 noundef %8) #10
  %.not24 = icmp eq i32 %9, 0
  br i1 %.not24, label %.loopexit, label %10

10:                                               ; preds = %5
  %11 = tail call ptr @SSL_new(ptr noundef %3) #10
  %12 = tail call i32 @test_ptr(ptr noundef nonnull @.str.14, i32 noundef 314, ptr noundef nonnull @.str.105, ptr noundef %11) #10
  %.not25 = icmp eq i32 %12, 0
  br i1 %.not25, label %.loopexit, label %13

13:                                               ; preds = %10
  %14 = tail call i32 @SSL_set_cipher_list(ptr noundef %11, ptr noundef nonnull @.str.104) #10
  %15 = icmp ne i32 %14, 0
  %16 = zext i1 %15 to i32
  %17 = tail call i32 @test_true(ptr noundef nonnull @.str.14, i32 noundef 317, ptr noundef nonnull @.str.106, i32 noundef %16) #10
  %.not26 = icmp eq i32 %17, 0
  br i1 %.not26, label %.loopexit, label %18

18:                                               ; preds = %13
  %19 = tail call ptr @SSL_get_ciphers(ptr noundef %11) #10
  %.b.pre33 = load i1, ptr @is_fips, align 4
  br label %20

20:                                               ; preds = %18, %32
  %.b = phi i1 [ %.b.pre33, %18 ], [ %.b34, %32 ]
  %.032 = phi i64 [ 0, %18 ], [ %.1, %32 ]
  %.02031 = phi i64 [ 0, %18 ], [ %33, %32 ]
  %21 = getelementptr inbounds nuw [3 x i32], ptr @__const.test_ciphersuites.cipherids, i64 0, i64 %.02031
  %22 = icmp eq i64 %.02031, 1
  %or.cond = select i1 %22, i1 %.b, i1 false
  br i1 %or.cond, label %32, label %23

23:                                               ; preds = %20
  %24 = trunc i64 %.032 to i32
  %25 = tail call ptr @OPENSSL_sk_value(ptr noundef %19, i32 noundef %24) #10
  %26 = tail call i32 @test_ptr(ptr noundef nonnull @.str.14, i32 noundef 326, ptr noundef nonnull @.str.107, ptr noundef %25) #10
  %.not28 = icmp eq i32 %26, 0
  br i1 %.not28, label %.loopexit, label %27

27:                                               ; preds = %23
  %28 = add i64 %.032, 1
  %29 = tail call i32 @SSL_CIPHER_get_id(ptr noundef %25) #10
  %30 = load i32, ptr %21, align 4, !tbaa !19
  %31 = tail call i32 @test_uint_eq(ptr noundef nonnull @.str.14, i32 noundef 328, ptr noundef nonnull @.str.108, ptr noundef nonnull @.str.109, i32 noundef %29, i32 noundef %30) #10
  %.not29 = icmp eq i32 %31, 0
  %.b.pre = load i1, ptr @is_fips, align 4
  br i1 %.not29, label %.loopexit, label %32

32:                                               ; preds = %27, %20
  %.b34 = phi i1 [ true, %20 ], [ %.b.pre, %27 ]
  %.1 = phi i64 [ %.032, %20 ], [ %28, %27 ]
  %33 = add nuw nsw i64 %.02031, 1
  %exitcond.not = icmp eq i64 %33, 3
  br i1 %exitcond.not, label %34, label %20, !llvm.loop !25

34:                                               ; preds = %32
  %35 = tail call i32 @OPENSSL_sk_num(ptr noundef %19) #10
  %36 = trunc i64 %.1 to i32
  %37 = tail call i32 @test_int_eq(ptr noundef nonnull @.str.14, i32 noundef 333, ptr noundef nonnull @.str.110, ptr noundef nonnull @.str.111, i32 noundef %35, i32 noundef %36) #10
  %.not27 = icmp ne i32 %37, 0
  %spec.select = zext i1 %.not27 to i32
  br label %.loopexit

.loopexit:                                        ; preds = %27, %23, %34, %13, %10, %5
  %.023 = phi ptr [ %11, %13 ], [ %11, %10 ], [ null, %5 ], [ %11, %34 ], [ %11, %23 ], [ %11, %27 ]
  %.022 = phi i32 [ 0, %13 ], [ 0, %10 ], [ 0, %5 ], [ %spec.select, %34 ], [ 0, %23 ], [ 0, %27 ]
  tail call void @SSL_free(ptr noundef %.023) #10
  tail call void @SSL_CTX_free(ptr noundef %3) #10
  br label %38

38:                                               ; preds = %0, %.loopexit
  %.021 = phi i32 [ %.022, %.loopexit ], [ 0, %0 ]
  ret i32 %.021
}